(cnumpy.core.multiarray
scalar
p0
(cnumpy
dtype
p1
(S'f8'
p2
I0
I1
tp3
Rp4
(I3
S'<'
p5
NNNI-1
I-1
I0
tp6
bS'2O-\x01@Ke@'
p7
tp8
Rp9
g0
(g4
S'2O-\x01@Ke@'
p10
tp11
Rp12
g0
(g4
S'2O-\x01@Ke@'
p13
tp14
Rp15
g0
(g4
S'2O-\x01@Ke@'
p16
tp17
Rp18
g0
(g4
S'2O-\x01@Ke@'
p19
tp20
Rp21
g0
(g4
S'2O-\x01@Ke@'
p22
tp23
Rp24
g0
(g4
S'2O-\x01@Ke@'
p25
tp26
Rp27
g0
(g4
S'2O-\x01@Ke@'
p28
tp29
Rp30
g0
(g4
S'2O-\x01@Ke@'
p31
tp32
Rp33
g0
(g4
S'2O-\x01@Ke@'
p34
tp35
Rp36
g0
(g4
S'2O-\x01@Ke@'
p37
tp38
Rp39
g0
(g4
S'2O-\x01@Ke@'
p40
tp41
Rp42
g0
(g4
S'2O-\x01@Ke@'
p43
tp44
Rp45
g0
(g4
S'2O-\x01@Ke@'
p46
tp47
Rp48
g0
(g4
S'2O-\x01@Ke@'
p49
tp50
Rp51
g0
(g4
S'2O-\x01@Ke@'
p52
tp53
Rp54
g0
(g4
S'2O-\x01@Ke@'
p55
tp56
Rp57
g0
(g4
S'2O-\x01@Ke@'
p58
tp59
Rp60
g0
(g4
S'2O-\x01@Ke@'
p61
tp62
Rp63
g0
(g4
S'2O-\x01@Ke@'
p64
tp65
Rp66
g0
(g4
S'2O-\x01@Ke@'
p67
tp68
Rp69
g0
(g4
S'2O-\x01@Ke@'
p70
tp71
Rp72
g0
(g4
S'2O-\x01@Ke@'
p73
tp74
Rp75
g0
(g4
S'2O-\x01@Ke@'
p76
tp77
Rp78
g0
(g4
S'2O-\x01@Ke@'
p79
tp80
Rp81
g0
(g4
S'2O-\x01@Ke@'
p82
tp83
Rp84
g0
(g4
S'2O-\x01@Ke@'
p85
tp86
Rp87
g0
(g4
S'2O-\x01@Ke@'
p88
tp89
Rp90
g0
(g4
S'2O-\x01@Ke@'
p91
tp92
Rp93
g0
(g4
S'2O-\x01@Ke@'
p94
tp95
Rp96
g0
(g4
S'2O-\x01@Ke@'
p97
tp98
Rp99
g0
(g4
S'2O-\x01@Ke@'
p100
tp101
Rp102
g0
(g4
S'2O-\x01@Ke@'
p103
tp104
Rp105
g0
(g4
S'2O-\x01@Ke@'
p106
tp107
Rp108
g0
(g4
S'2O-\x01@Ke@'
p109
tp110
Rp111
g0
(g4
S'2O-\x01@Ke@'
p112
tp113
Rp114
g0
(g4
S'2O-\x01@Ke@'
p115
tp116
Rp117
g0
(g4
S'2O-\x01@Ke@'
p118
tp119
Rp120
g0
(g4
S'2O-\x01@Ke@'
p121
tp122
Rp123
g0
(g4
S'2O-\x01@Ke@'
p124
tp125
Rp126
g0
(g4
S'2O-\x01@Ke@'
p127
tp128
Rp129
g0
(g4
S'2O-\x01@Ke@'
p130
tp131
Rp132
g0
(g4
S'2O-\x01@Ke@'
p133
tp134
Rp135
g0
(g4
S'2O-\x01@Ke@'
p136
tp137
Rp138
g0
(g4
S'2O-\x01@Ke@'
p139
tp140
Rp141
g0
(g4
S'2O-\x01@Ke@'
p142
tp143
Rp144
g0
(g4
S'2O-\x01@Ke@'
p145
tp146
Rp147
g0
(g4
S'2O-\x01@Ke@'
p148
tp149
Rp150
g0
(g4
S'2O-\x01@Ke@'
p151
tp152
Rp153
g0
(g4
S'2O-\x01@Ke@'
p154
tp155
Rp156
g0
(g4
S'2O-\x01@Ke@'
p157
tp158
Rp159
g0
(g4
S'2O-\x01@Ke@'
p160
tp161
Rp162
g0
(g4
S'2O-\x01@Ke@'
p163
tp164
Rp165
g0
(g4
S'2O-\x01@Ke@'
p166
tp167
Rp168
g0
(g4
S'2O-\x01@Ke@'
p169
tp170
Rp171
g0
(g4
S'2O-\x01@Ke@'
p172
tp173
Rp174
g0
(g4
S'2O-\x01@Ke@'
p175
tp176
Rp177
g0
(g4
S'2O-\x01@Ke@'
p178
tp179
Rp180
g0
(g4
S'2O-\x01@Ke@'
p181
tp182
Rp183
g0
(g4
S'2O-\x01@Ke@'
p184
tp185
Rp186
g0
(g4
S'2O-\x01@Ke@'
p187
tp188
Rp189
g0
(g4
S'2O-\x01@Ke@'
p190
tp191
Rp192
g0
(g4
S'2O-\x01@Ke@'
p193
tp194
Rp195
g0
(g4
S'2O-\x01@Ke@'
p196
tp197
Rp198
g0
(g4
S'2O-\x01@Ke@'
p199
tp200
Rp201
g0
(g4
S'2O-\x01@Ke@'
p202
tp203
Rp204
g0
(g4
S'2O-\x01@Ke@'
p205
tp206
Rp207
g0
(g4
S'2O-\x01@Ke@'
p208
tp209
Rp210
g0
(g4
S'2O-\x01@Ke@'
p211
tp212
Rp213
g0
(g4
S'2O-\x01@Ke@'
p214
tp215
Rp216
g0
(g4
S'2O-\x01@Ke@'
p217
tp218
Rp219
g0
(g4
S'2O-\x01@Ke@'
p220
tp221
Rp222
g0
(g4
S'2O-\x01@Ke@'
p223
tp224
Rp225
g0
(g4
S'2O-\x01@Ke@'
p226
tp227
Rp228
g0
(g4
S'2O-\x01@Ke@'
p229
tp230
Rp231
g0
(g4
S'2O-\x01@Ke@'
p232
tp233
Rp234
g0
(g4
S'2O-\x01@Ke@'
p235
tp236
Rp237
g0
(g4
S'2O-\x01@Ke@'
p238
tp239
Rp240
g0
(g4
S'2O-\x01@Ke@'
p241
tp242
Rp243
g0
(g4
S'2O-\x01@Ke@'
p244
tp245
Rp246
g0
(g4
S'2O-\x01@Ke@'
p247
tp248
Rp249
g0
(g4
S'2O-\x01@Ke@'
p250
tp251
Rp252
g0
(g4
S'2O-\x01@Ke@'
p253
tp254
Rp255
g0
(g4
S'2O-\x01@Ke@'
p256
tp257
Rp258
g0
(g4
S'2O-\x01@Ke@'
p259
tp260
Rp261
g0
(g4
S'2O-\x01@Ke@'
p262
tp263
Rp264
g0
(g4
S'2O-\x01@Ke@'
p265
tp266
Rp267
g0
(g4
S'2O-\x01@Ke@'
p268
tp269
Rp270
g0
(g4
S'2O-\x01@Ke@'
p271
tp272
Rp273
g0
(g4
S'2O-\x01@Ke@'
p274
tp275
Rp276
g0
(g4
S'2O-\x01@Ke@'
p277
tp278
Rp279
g0
(g4
S'2O-\x01@Ke@'
p280
tp281
Rp282
g0
(g4
S'2O-\x01@Ke@'
p283
tp284
Rp285
g0
(g4
S'2O-\x01@Ke@'
p286
tp287
Rp288
g0
(g4
S'2O-\x01@Ke@'
p289
tp290
Rp291
g0
(g4
S'2O-\x01@Ke@'
p292
tp293
Rp294
g0
(g4
S'2O-\x01@Ke@'
p295
tp296
Rp297
g0
(g4
S'2O-\x01@Ke@'
p298
tp299
Rp300
g0
(g4
S'2O-\x01@Ke@'
p301
tp302
Rp303
g0
(g4
S'2O-\x01@Ke@'
p304
tp305
Rp306
g0
(g4
S'2O-\x01@Ke@'
p307
tp308
Rp309
g0
(g4
S'2O-\x01@Ke@'
p310
tp311
Rp312
g0
(g4
S'2O-\x01@Ke@'
p313
tp314
Rp315
g0
(g4
S'2O-\x01@Ke@'
p316
tp317
Rp318
g0
(g4
S'2O-\x01@Ke@'
p319
tp320
Rp321
g0
(g4
S'2O-\x01@Ke@'
p322
tp323
Rp324
g0
(g4
S'2O-\x01@Ke@'
p325
tp326
Rp327
g0
(g4
S'2O-\x01@Ke@'
p328
tp329
Rp330
g0
(g4
S'2O-\x01@Ke@'
p331
tp332
Rp333
g0
(g4
S'2O-\x01@Ke@'
p334
tp335
Rp336
g0
(g4
S'2O-\x01@Ke@'
p337
tp338
Rp339
g0
(g4
S'2O-\x01@Ke@'
p340
tp341
Rp342
g0
(g4
S'2O-\x01@Ke@'
p343
tp344
Rp345
g0
(g4
S'2O-\x01@Ke@'
p346
tp347
Rp348
g0
(g4
S'2O-\x01@Ke@'
p349
tp350
Rp351
g0
(g4
S'2O-\x01@Ke@'
p352
tp353
Rp354
g0
(g4
S'2O-\x01@Ke@'
p355
tp356
Rp357
g0
(g4
S'2O-\x01@Ke@'
p358
tp359
Rp360
g0
(g4
S'2O-\x01@Ke@'
p361
tp362
Rp363
g0
(g4
S'2O-\x01@Ke@'
p364
tp365
Rp366
g0
(g4
S'2O-\x01@Ke@'
p367
tp368
Rp369
g0
(g4
S'2O-\x01@Ke@'
p370
tp371
Rp372
g0
(g4
S'2O-\x01@Ke@'
p373
tp374
Rp375
g0
(g4
S'2O-\x01@Ke@'
p376
tp377
Rp378
g0
(g4
S'2O-\x01@Ke@'
p379
tp380
Rp381
g0
(g4
S'2O-\x01@Ke@'
p382
tp383
Rp384
g0
(g4
S'2O-\x01@Ke@'
p385
tp386
Rp387
g0
(g4
S'2O-\x01@Ke@'
p388
tp389
Rp390
g0
(g4
S'2O-\x01@Ke@'
p391
tp392
Rp393
g0
(g4
S'2O-\x01@Ke@'
p394
tp395
Rp396
g0
(g4
S'2O-\x01@Ke@'
p397
tp398
Rp399
g0
(g4
S'2O-\x01@Ke@'
p400
tp401
Rp402
g0
(g4
S'2O-\x01@Ke@'
p403
tp404
Rp405
g0
(g4
S'2O-\x01@Ke@'
p406
tp407
Rp408
g0
(g4
S'2O-\x01@Ke@'
p409
tp410
Rp411
g0
(g4
S'2O-\x01@Ke@'
p412
tp413
Rp414
g0
(g4
S'2O-\x01@Ke@'
p415
tp416
Rp417
g0
(g4
S'2O-\x01@Ke@'
p418
tp419
Rp420
g0
(g4
S'2O-\x01@Ke@'
p421
tp422
Rp423
g0
(g4
S'2O-\x01@Ke@'
p424
tp425
Rp426
g0
(g4
S'2O-\x01@Ke@'
p427
tp428
Rp429
g0
(g4
S'2O-\x01@Ke@'
p430
tp431
Rp432
g0
(g4
S'2O-\x01@Ke@'
p433
tp434
Rp435
g0
(g4
S'2O-\x01@Ke@'
p436
tp437
Rp438
g0
(g4
S'2O-\x01@Ke@'
p439
tp440
Rp441
g0
(g4
S'2O-\x01@Ke@'
p442
tp443
Rp444
g0
(g4
S'2O-\x01@Ke@'
p445
tp446
Rp447
g0
(g4
S'2O-\x01@Ke@'
p448
tp449
Rp450
g0
(g4
S'2O-\x01@Ke@'
p451
tp452
Rp453
g0
(g4
S'2O-\x01@Ke@'
p454
tp455
Rp456
g0
(g4
S'2O-\x01@Ke@'
p457
tp458
Rp459
g0
(g4
S'2O-\x01@Ke@'
p460
tp461
Rp462
g0
(g4
S'2O-\x01@Ke@'
p463
tp464
Rp465
g0
(g4
S'2O-\x01@Ke@'
p466
tp467
Rp468
g0
(g4
S'2O-\x01@Ke@'
p469
tp470
Rp471
g0
(g4
S'2O-\x01@Ke@'
p472
tp473
Rp474
g0
(g4
S'2O-\x01@Ke@'
p475
tp476
Rp477
g0
(g4
S'2O-\x01@Ke@'
p478
tp479
Rp480
g0
(g4
S'2O-\x01@Ke@'
p481
tp482
Rp483
g0
(g4
S'2O-\x01@Ke@'
p484
tp485
Rp486
g0
(g4
S'2O-\x01@Ke@'
p487
tp488
Rp489
g0
(g4
S'2O-\x01@Ke@'
p490
tp491
Rp492
g0
(g4
S'2O-\x01@Ke@'
p493
tp494
Rp495
g0
(g4
S'2O-\x01@Ke@'
p496
tp497
Rp498
g0
(g4
S'2O-\x01@Ke@'
p499
tp500
Rp501
g0
(g4
S'2O-\x01@Ke@'
p502
tp503
Rp504
g0
(g4
S'2O-\x01@Ke@'
p505
tp506
Rp507
g0
(g4
S'2O-\x01@Ke@'
p508
tp509
Rp510
g0
(g4
S'2O-\x01@Ke@'
p511
tp512
Rp513
g0
(g4
S'2O-\x01@Ke@'
p514
tp515
Rp516
g0
(g4
S'2O-\x01@Ke@'
p517
tp518
Rp519
g0
(g4
S'2O-\x01@Ke@'
p520
tp521
Rp522
g0
(g4
S'2O-\x01@Ke@'
p523
tp524
Rp525
g0
(g4
S'2O-\x01@Ke@'
p526
tp527
Rp528
g0
(g4
S'2O-\x01@Ke@'
p529
tp530
Rp531
g0
(g4
S'2O-\x01@Ke@'
p532
tp533
Rp534
g0
(g4
S'2O-\x01@Ke@'
p535
tp536
Rp537
g0
(g4
S'2O-\x01@Ke@'
p538
tp539
Rp540
g0
(g4
S'2O-\x01@Ke@'
p541
tp542
Rp543
g0
(g4
S'2O-\x01@Ke@'
p544
tp545
Rp546
g0
(g4
S'2O-\x01@Ke@'
p547
tp548
Rp549
g0
(g4
S'2O-\x01@Ke@'
p550
tp551
Rp552
g0
(g4
S'2O-\x01@Ke@'
p553
tp554
Rp555
g0
(g4
S'2O-\x01@Ke@'
p556
tp557
Rp558
g0
(g4
S'2O-\x01@Ke@'
p559
tp560
Rp561
g0
(g4
S'2O-\x01@Ke@'
p562
tp563
Rp564
g0
(g4
S'2O-\x01@Ke@'
p565
tp566
Rp567
g0
(g4
S'2O-\x01@Ke@'
p568
tp569
Rp570
g0
(g4
S'2O-\x01@Ke@'
p571
tp572
Rp573
g0
(g4
S'2O-\x01@Ke@'
p574
tp575
Rp576
g0
(g4
S'2O-\x01@Ke@'
p577
tp578
Rp579
g0
(g4
S'2O-\x01@Ke@'
p580
tp581
Rp582
g0
(g4
S'2O-\x01@Ke@'
p583
tp584
Rp585
g0
(g4
S'2O-\x01@Ke@'
p586
tp587
Rp588
g0
(g4
S'2O-\x01@Ke@'
p589
tp590
Rp591
g0
(g4
S'2O-\x01@Ke@'
p592
tp593
Rp594
g0
(g4
S'2O-\x01@Ke@'
p595
tp596
Rp597
g0
(g4
S'2O-\x01@Ke@'
p598
tp599
Rp600
g0
(g4
S'2O-\x01@Ke@'
p601
tp602
Rp603
g0
(g4
S'2O-\x01@Ke@'
p604
tp605
Rp606
g0
(g4
S'2O-\x01@Ke@'
p607
tp608
Rp609
g0
(g4
S'2O-\x01@Ke@'
p610
tp611
Rp612
g0
(g4
S'2O-\x01@Ke@'
p613
tp614
Rp615
g0
(g4
S'2O-\x01@Ke@'
p616
tp617
Rp618
g0
(g4
S'2O-\x01@Ke@'
p619
tp620
Rp621
g0
(g4
S'2O-\x01@Ke@'
p622
tp623
Rp624
g0
(g4
S'2O-\x01@Ke@'
p625
tp626
Rp627
g0
(g4
S'2O-\x01@Ke@'
p628
tp629
Rp630
g0
(g4
S'2O-\x01@Ke@'
p631
tp632
Rp633
g0
(g4
S'2O-\x01@Ke@'
p634
tp635
Rp636
g0
(g4
S'2O-\x01@Ke@'
p637
tp638
Rp639
g0
(g4
S'2O-\x01@Ke@'
p640
tp641
Rp642
g0
(g4
S'2O-\x01@Ke@'
p643
tp644
Rp645
g0
(g4
S'2O-\x01@Ke@'
p646
tp647
Rp648
g0
(g4
S'2O-\x01@Ke@'
p649
tp650
Rp651
g0
(g4
S'2O-\x01@Ke@'
p652
tp653
Rp654
g0
(g4
S'2O-\x01@Ke@'
p655
tp656
Rp657
g0
(g4
S'2O-\x01@Ke@'
p658
tp659
Rp660
g0
(g4
S'2O-\x01@Ke@'
p661
tp662
Rp663
g0
(g4
S'2O-\x01@Ke@'
p664
tp665
Rp666
g0
(g4
S'2O-\x01@Ke@'
p667
tp668
Rp669
g0
(g4
S'2O-\x01@Ke@'
p670
tp671
Rp672
g0
(g4
S'2O-\x01@Ke@'
p673
tp674
Rp675
g0
(g4
S'2O-\x01@Ke@'
p676
tp677
Rp678
g0
(g4
S'2O-\x01@Ke@'
p679
tp680
Rp681
g0
(g4
S'2O-\x01@Ke@'
p682
tp683
Rp684
g0
(g4
S'2O-\x01@Ke@'
p685
tp686
Rp687
g0
(g4
S'2O-\x01@Ke@'
p688
tp689
Rp690
g0
(g4
S'2O-\x01@Ke@'
p691
tp692
Rp693
g0
(g4
S'2O-\x01@Ke@'
p694
tp695
Rp696
g0
(g4
S'2O-\x01@Ke@'
p697
tp698
Rp699
g0
(g4
S'2O-\x01@Ke@'
p700
tp701
Rp702
g0
(g4
S'2O-\x01@Ke@'
p703
tp704
Rp705
g0
(g4
S'2O-\x01@Ke@'
p706
tp707
Rp708
g0
(g4
S'2O-\x01@Ke@'
p709
tp710
Rp711
g0
(g4
S'2O-\x01@Ke@'
p712
tp713
Rp714
g0
(g4
S'2O-\x01@Ke@'
p715
tp716
Rp717
g0
(g4
S'2O-\x01@Ke@'
p718
tp719
Rp720
g0
(g4
S'2O-\x01@Ke@'
p721
tp722
Rp723
g0
(g4
S'2O-\x01@Ke@'
p724
tp725
Rp726
g0
(g4
S'2O-\x01@Ke@'
p727
tp728
Rp729
g0
(g4
S'2O-\x01@Ke@'
p730
tp731
Rp732
g0
(g4
S'2O-\x01@Ke@'
p733
tp734
Rp735
g0
(g4
S'2O-\x01@Ke@'
p736
tp737
Rp738
g0
(g4
S'2O-\x01@Ke@'
p739
tp740
Rp741
g0
(g4
S'2O-\x01@Ke@'
p742
tp743
Rp744
g0
(g4
S'2O-\x01@Ke@'
p745
tp746
Rp747
g0
(g4
S'2O-\x01@Ke@'
p748
tp749
Rp750
g0
(g4
S'2O-\x01@Ke@'
p751
tp752
Rp753
g0
(g4
S'2O-\x01@Ke@'
p754
tp755
Rp756
g0
(g4
S'2O-\x01@Ke@'
p757
tp758
Rp759
g0
(g4
S'2O-\x01@Ke@'
p760
tp761
Rp762
g0
(g4
S'2O-\x01@Ke@'
p763
tp764
Rp765
g0
(g4
S'2O-\x01@Ke@'
p766
tp767
Rp768
g0
(g4
S'2O-\x01@Ke@'
p769
tp770
Rp771
g0
(g4
S'2O-\x01@Ke@'
p772
tp773
Rp774
g0
(g4
S'2O-\x01@Ke@'
p775
tp776
Rp777
g0
(g4
S'2O-\x01@Ke@'
p778
tp779
Rp780
g0
(g4
S'2O-\x01@Ke@'
p781
tp782
Rp783
g0
(g4
S'2O-\x01@Ke@'
p784
tp785
Rp786
g0
(g4
S'2O-\x01@Ke@'
p787
tp788
Rp789
g0
(g4
S'2O-\x01@Ke@'
p790
tp791
Rp792
g0
(g4
S'2O-\x01@Ke@'
p793
tp794
Rp795
g0
(g4
S'2O-\x01@Ke@'
p796
tp797
Rp798
g0
(g4
S'2O-\x01@Ke@'
p799
tp800
Rp801
g0
(g4
S'2O-\x01@Ke@'
p802
tp803
Rp804
g0
(g4
S'2O-\x01@Ke@'
p805
tp806
Rp807
g0
(g4
S'2O-\x01@Ke@'
p808
tp809
Rp810
g0
(g4
S'2O-\x01@Ke@'
p811
tp812
Rp813
g0
(g4
S'2O-\x01@Ke@'
p814
tp815
Rp816
g0
(g4
S'2O-\x01@Ke@'
p817
tp818
Rp819
g0
(g4
S'2O-\x01@Ke@'
p820
tp821
Rp822
g0
(g4
S'2O-\x01@Ke@'
p823
tp824
Rp825
g0
(g4
S'2O-\x01@Ke@'
p826
tp827
Rp828
g0
(g4
S'2O-\x01@Ke@'
p829
tp830
Rp831
g0
(g4
S'2O-\x01@Ke@'
p832
tp833
Rp834
g0
(g4
S'2O-\x01@Ke@'
p835
tp836
Rp837
g0
(g4
S'2O-\x01@Ke@'
p838
tp839
Rp840
g0
(g4
S'2O-\x01@Ke@'
p841
tp842
Rp843
g0
(g4
S'2O-\x01@Ke@'
p844
tp845
Rp846
g0
(g4
S'2O-\x01@Ke@'
p847
tp848
Rp849
g0
(g4
S'2O-\x01@Ke@'
p850
tp851
Rp852
g0
(g4
S'2O-\x01@Ke@'
p853
tp854
Rp855
g0
(g4
S'2O-\x01@Ke@'
p856
tp857
Rp858
g0
(g4
S'2O-\x01@Ke@'
p859
tp860
Rp861
g0
(g4
S'2O-\x01@Ke@'
p862
tp863
Rp864
g0
(g4
S'2O-\x01@Ke@'
p865
tp866
Rp867
g0
(g4
S'2O-\x01@Ke@'
p868
tp869
Rp870
g0
(g4
S'2O-\x01@Ke@'
p871
tp872
Rp873
g0
(g4
S'2O-\x01@Ke@'
p874
tp875
Rp876
g0
(g4
S'2O-\x01@Ke@'
p877
tp878
Rp879
g0
(g4
S'2O-\x01@Ke@'
p880
tp881
Rp882
g0
(g4
S'2O-\x01@Ke@'
p883
tp884
Rp885
g0
(g4
S'2O-\x01@Ke@'
p886
tp887
Rp888
g0
(g4
S'2O-\x01@Ke@'
p889
tp890
Rp891
g0
(g4
S'2O-\x01@Ke@'
p892
tp893
Rp894
g0
(g4
S'2O-\x01@Ke@'
p895
tp896
Rp897
g0
(g4
S'2O-\x01@Ke@'
p898
tp899
Rp900
g0
(g4
S'2O-\x01@Ke@'
p901
tp902
Rp903
g0
(g4
S'2O-\x01@Ke@'
p904
tp905
Rp906
g0
(g4
S'2O-\x01@Ke@'
p907
tp908
Rp909
g0
(g4
S'2O-\x01@Ke@'
p910
tp911
Rp912
g0
(g4
S'2O-\x01@Ke@'
p913
tp914
Rp915
g0
(g4
S'2O-\x01@Ke@'
p916
tp917
Rp918
g0
(g4
S'2O-\x01@Ke@'
p919
tp920
Rp921
g0
(g4
S'2O-\x01@Ke@'
p922
tp923
Rp924
g0
(g4
S'2O-\x01@Ke@'
p925
tp926
Rp927
g0
(g4
S'2O-\x01@Ke@'
p928
tp929
Rp930
g0
(g4
S'2O-\x01@Ke@'
p931
tp932
Rp933
g0
(g4
S'2O-\x01@Ke@'
p934
tp935
Rp936
g0
(g4
S'2O-\x01@Ke@'
p937
tp938
Rp939
g0
(g4
S'2O-\x01@Ke@'
p940
tp941
Rp942
g0
(g4
S'2O-\x01@Ke@'
p943
tp944
Rp945
g0
(g4
S'2O-\x01@Ke@'
p946
tp947
Rp948
g0
(g4
S'2O-\x01@Ke@'
p949
tp950
Rp951
g0
(g4
S'2O-\x01@Ke@'
p952
tp953
Rp954
g0
(g4
S'2O-\x01@Ke@'
p955
tp956
Rp957
g0
(g4
S'2O-\x01@Ke@'
p958
tp959
Rp960
g0
(g4
S'2O-\x01@Ke@'
p961
tp962
Rp963
g0
(g4
S'2O-\x01@Ke@'
p964
tp965
Rp966
g0
(g4
S'2O-\x01@Ke@'
p967
tp968
Rp969
g0
(g4
S'2O-\x01@Ke@'
p970
tp971
Rp972
g0
(g4
S'2O-\x01@Ke@'
p973
tp974
Rp975
g0
(g4
S'2O-\x01@Ke@'
p976
tp977
Rp978
g0
(g4
S'2O-\x01@Ke@'
p979
tp980
Rp981
g0
(g4
S'2O-\x01@Ke@'
p982
tp983
Rp984
g0
(g4
S'2O-\x01@Ke@'
p985
tp986
Rp987
g0
(g4
S'2O-\x01@Ke@'
p988
tp989
Rp990
g0
(g4
S'2O-\x01@Ke@'
p991
tp992
Rp993
g0
(g4
S'2O-\x01@Ke@'
p994
tp995
Rp996
g0
(g4
S'2O-\x01@Ke@'
p997
tp998
Rp999
g0
(g4
S'2O-\x01@Ke@'
p1000
tp1001
Rp1002
g0
(g4
S'2O-\x01@Ke@'
p1003
tp1004
Rp1005
g0
(g4
S'2O-\x01@Ke@'
p1006
tp1007
Rp1008
g0
(g4
S'2O-\x01@Ke@'
p1009
tp1010
Rp1011
g0
(g4
S'2O-\x01@Ke@'
p1012
tp1013
Rp1014
g0
(g4
S'2O-\x01@Ke@'
p1015
tp1016
Rp1017
g0
(g4
S'2O-\x01@Ke@'
p1018
tp1019
Rp1020
g0
(g4
S'2O-\x01@Ke@'
p1021
tp1022
Rp1023
g0
(g4
S'2O-\x01@Ke@'
p1024
tp1025
Rp1026
g0
(g4
S'2O-\x01@Ke@'
p1027
tp1028
Rp1029
g0
(g4
S'2O-\x01@Ke@'
p1030
tp1031
Rp1032
g0
(g4
S'2O-\x01@Ke@'
p1033
tp1034
Rp1035
g0
(g4
S'2O-\x01@Ke@'
p1036
tp1037
Rp1038
g0
(g4
S'2O-\x01@Ke@'
p1039
tp1040
Rp1041
g0
(g4
S'2O-\x01@Ke@'
p1042
tp1043
Rp1044
g0
(g4
S'2O-\x01@Ke@'
p1045
tp1046
Rp1047
g0
(g4
S'2O-\x01@Ke@'
p1048
tp1049
Rp1050
g0
(g4
S'2O-\x01@Ke@'
p1051
tp1052
Rp1053
g0
(g4
S'2O-\x01@Ke@'
p1054
tp1055
Rp1056
g0
(g4
S'2O-\x01@Ke@'
p1057
tp1058
Rp1059
g0
(g4
S'2O-\x01@Ke@'
p1060
tp1061
Rp1062
g0
(g4
S'2O-\x01@Ke@'
p1063
tp1064
Rp1065
g0
(g4
S'2O-\x01@Ke@'
p1066
tp1067
Rp1068
g0
(g4
S'2O-\x01@Ke@'
p1069
tp1070
Rp1071
g0
(g4
S'2O-\x01@Ke@'
p1072
tp1073
Rp1074
g0
(g4
S'2O-\x01@Ke@'
p1075
tp1076
Rp1077
g0
(g4
S'2O-\x01@Ke@'
p1078
tp1079
Rp1080
g0
(g4
S'2O-\x01@Ke@'
p1081
tp1082
Rp1083
g0
(g4
S'2O-\x01@Ke@'
p1084
tp1085
Rp1086
g0
(g4
S'2O-\x01@Ke@'
p1087
tp1088
Rp1089
g0
(g4
S'2O-\x01@Ke@'
p1090
tp1091
Rp1092
g0
(g4
S'2O-\x01@Ke@'
p1093
tp1094
Rp1095
g0
(g4
S'2O-\x01@Ke@'
p1096
tp1097
Rp1098
g0
(g4
S'2O-\x01@Ke@'
p1099
tp1100
Rp1101
g0
(g4
S'2O-\x01@Ke@'
p1102
tp1103
Rp1104
g0
(g4
S'2O-\x01@Ke@'
p1105
tp1106
Rp1107
g0
(g4
S'2O-\x01@Ke@'
p1108
tp1109
Rp1110
g0
(g4
S'2O-\x01@Ke@'
p1111
tp1112
Rp1113
g0
(g4
S'2O-\x01@Ke@'
p1114
tp1115
Rp1116
g0
(g4
S'2O-\x01@Ke@'
p1117
tp1118
Rp1119
g0
(g4
S'2O-\x01@Ke@'
p1120
tp1121
Rp1122
g0
(g4
S'2O-\x01@Ke@'
p1123
tp1124
Rp1125
g0
(g4
S'2O-\x01@Ke@'
p1126
tp1127
Rp1128
g0
(g4
S'2O-\x01@Ke@'
p1129
tp1130
Rp1131
g0
(g4
S'2O-\x01@Ke@'
p1132
tp1133
Rp1134
g0
(g4
S'2O-\x01@Ke@'
p1135
tp1136
Rp1137
g0
(g4
S'2O-\x01@Ke@'
p1138
tp1139
Rp1140
g0
(g4
S'2O-\x01@Ke@'
p1141
tp1142
Rp1143
g0
(g4
S'2O-\x01@Ke@'
p1144
tp1145
Rp1146
g0
(g4
S'2O-\x01@Ke@'
p1147
tp1148
Rp1149
g0
(g4
S'2O-\x01@Ke@'
p1150
tp1151
Rp1152
g0
(g4
S'2O-\x01@Ke@'
p1153
tp1154
Rp1155
g0
(g4
S'2O-\x01@Ke@'
p1156
tp1157
Rp1158
g0
(g4
S'2O-\x01@Ke@'
p1159
tp1160
Rp1161
g0
(g4
S'2O-\x01@Ke@'
p1162
tp1163
Rp1164
g0
(g4
S'2O-\x01@Ke@'
p1165
tp1166
Rp1167
g0
(g4
S'2O-\x01@Ke@'
p1168
tp1169
Rp1170
g0
(g4
S'2O-\x01@Ke@'
p1171
tp1172
Rp1173
g0
(g4
S'2O-\x01@Ke@'
p1174
tp1175
Rp1176
g0
(g4
S'2O-\x01@Ke@'
p1177
tp1178
Rp1179
g0
(g4
S'2O-\x01@Ke@'
p1180
tp1181
Rp1182
g0
(g4
S'2O-\x01@Ke@'
p1183
tp1184
Rp1185
g0
(g4
S'2O-\x01@Ke@'
p1186
tp1187
Rp1188
g0
(g4
S'2O-\x01@Ke@'
p1189
tp1190
Rp1191
g0
(g4
S'2O-\x01@Ke@'
p1192
tp1193
Rp1194
g0
(g4
S'2O-\x01@Ke@'
p1195
tp1196
Rp1197
g0
(g4
S'2O-\x01@Ke@'
p1198
tp1199
Rp1200
g0
(g4
S'2O-\x01@Ke@'
p1201
tp1202
Rp1203
g0
(g4
S'2O-\x01@Ke@'
p1204
tp1205
Rp1206
g0
(g4
S'2O-\x01@Ke@'
p1207
tp1208
Rp1209
g0
(g4
S'2O-\x01@Ke@'
p1210
tp1211
Rp1212
g0
(g4
S'2O-\x01@Ke@'
p1213
tp1214
Rp1215
g0
(g4
S'2O-\x01@Ke@'
p1216
tp1217
Rp1218
g0
(g4
S'2O-\x01@Ke@'
p1219
tp1220
Rp1221
g0
(g4
S'2O-\x01@Ke@'
p1222
tp1223
Rp1224
g0
(g4
S'2O-\x01@Ke@'
p1225
tp1226
Rp1227
g0
(g4
S'2O-\x01@Ke@'
p1228
tp1229
Rp1230
g0
(g4
S'2O-\x01@Ke@'
p1231
tp1232
Rp1233
g0
(g4
S'2O-\x01@Ke@'
p1234
tp1235
Rp1236
g0
(g4
S'2O-\x01@Ke@'
p1237
tp1238
Rp1239
g0
(g4
S'2O-\x01@Ke@'
p1240
tp1241
Rp1242
g0
(g4
S'2O-\x01@Ke@'
p1243
tp1244
Rp1245
g0
(g4
S'2O-\x01@Ke@'
p1246
tp1247
Rp1248
g0
(g4
S'2O-\x01@Ke@'
p1249
tp1250
Rp1251
g0
(g4
S'2O-\x01@Ke@'
p1252
tp1253
Rp1254
g0
(g4
S'2O-\x01@Ke@'
p1255
tp1256
Rp1257
g0
(g4
S'2O-\x01@Ke@'
p1258
tp1259
Rp1260
g0
(g4
S'2O-\x01@Ke@'
p1261
tp1262
Rp1263
g0
(g4
S'2O-\x01@Ke@'
p1264
tp1265
Rp1266
g0
(g4
S'2O-\x01@Ke@'
p1267
tp1268
Rp1269
g0
(g4
S'2O-\x01@Ke@'
p1270
tp1271
Rp1272
g0
(g4
S'2O-\x01@Ke@'
p1273
tp1274
Rp1275
g0
(g4
S'2O-\x01@Ke@'
p1276
tp1277
Rp1278
g0
(g4
S'2O-\x01@Ke@'
p1279
tp1280
Rp1281
g0
(g4
S'2O-\x01@Ke@'
p1282
tp1283
Rp1284
g0
(g4
S'2O-\x01@Ke@'
p1285
tp1286
Rp1287
g0
(g4
S'2O-\x01@Ke@'
p1288
tp1289
Rp1290
g0
(g4
S'2O-\x01@Ke@'
p1291
tp1292
Rp1293
g0
(g4
S'2O-\x01@Ke@'
p1294
tp1295
Rp1296
g0
(g4
S'2O-\x01@Ke@'
p1297
tp1298
Rp1299
g0
(g4
S'2O-\x01@Ke@'
p1300
tp1301
Rp1302
g0
(g4
S'2O-\x01@Ke@'
p1303
tp1304
Rp1305
g0
(g4
S'2O-\x01@Ke@'
p1306
tp1307
Rp1308
g0
(g4
S'2O-\x01@Ke@'
p1309
tp1310
Rp1311
g0
(g4
S'2O-\x01@Ke@'
p1312
tp1313
Rp1314
g0
(g4
S'2O-\x01@Ke@'
p1315
tp1316
Rp1317
g0
(g4
S'2O-\x01@Ke@'
p1318
tp1319
Rp1320
g0
(g4
S'2O-\x01@Ke@'
p1321
tp1322
Rp1323
g0
(g4
S'2O-\x01@Ke@'
p1324
tp1325
Rp1326
g0
(g4
S'2O-\x01@Ke@'
p1327
tp1328
Rp1329
g0
(g4
S'2O-\x01@Ke@'
p1330
tp1331
Rp1332
g0
(g4
S'2O-\x01@Ke@'
p1333
tp1334
Rp1335
g0
(g4
S'2O-\x01@Ke@'
p1336
tp1337
Rp1338
g0
(g4
S'2O-\x01@Ke@'
p1339
tp1340
Rp1341
g0
(g4
S'2O-\x01@Ke@'
p1342
tp1343
Rp1344
g0
(g4
S'2O-\x01@Ke@'
p1345
tp1346
Rp1347
g0
(g4
S'2O-\x01@Ke@'
p1348
tp1349
Rp1350
g0
(g4
S'2O-\x01@Ke@'
p1351
tp1352
Rp1353
g0
(g4
S'2O-\x01@Ke@'
p1354
tp1355
Rp1356
g0
(g4
S'2O-\x01@Ke@'
p1357
tp1358
Rp1359
g0
(g4
S'2O-\x01@Ke@'
p1360
tp1361
Rp1362
g0
(g4
S'2O-\x01@Ke@'
p1363
tp1364
Rp1365
g0
(g4
S'2O-\x01@Ke@'
p1366
tp1367
Rp1368
g0
(g4
S'2O-\x01@Ke@'
p1369
tp1370
Rp1371
g0
(g4
S'2O-\x01@Ke@'
p1372
tp1373
Rp1374
g0
(g4
S'2O-\x01@Ke@'
p1375
tp1376
Rp1377
g0
(g4
S'2O-\x01@Ke@'
p1378
tp1379
Rp1380
g0
(g4
S'2O-\x01@Ke@'
p1381
tp1382
Rp1383
g0
(g4
S'2O-\x01@Ke@'
p1384
tp1385
Rp1386
g0
(g4
S'2O-\x01@Ke@'
p1387
tp1388
Rp1389
g0
(g4
S'2O-\x01@Ke@'
p1390
tp1391
Rp1392
g0
(g4
S'2O-\x01@Ke@'
p1393
tp1394
Rp1395
g0
(g4
S'2O-\x01@Ke@'
p1396
tp1397
Rp1398
g0
(g4
S'2O-\x01@Ke@'
p1399
tp1400
Rp1401
g0
(g4
S'2O-\x01@Ke@'
p1402
tp1403
Rp1404
g0
(g4
S'2O-\x01@Ke@'
p1405
tp1406
Rp1407
g0
(g4
S'2O-\x01@Ke@'
p1408
tp1409
Rp1410
g0
(g4
S'2O-\x01@Ke@'
p1411
tp1412
Rp1413
g0
(g4
S'2O-\x01@Ke@'
p1414
tp1415
Rp1416
g0
(g4
S'2O-\x01@Ke@'
p1417
tp1418
Rp1419
g0
(g4
S'2O-\x01@Ke@'
p1420
tp1421
Rp1422
g0
(g4
S'2O-\x01@Ke@'
p1423
tp1424
Rp1425
g0
(g4
S'2O-\x01@Ke@'
p1426
tp1427
Rp1428
g0
(g4
S'2O-\x01@Ke@'
p1429
tp1430
Rp1431
g0
(g4
S'2O-\x01@Ke@'
p1432
tp1433
Rp1434
g0
(g4
S'2O-\x01@Ke@'
p1435
tp1436
Rp1437
g0
(g4
S'2O-\x01@Ke@'
p1438
tp1439
Rp1440
g0
(g4
S'2O-\x01@Ke@'
p1441
tp1442
Rp1443
g0
(g4
S'2O-\x01@Ke@'
p1444
tp1445
Rp1446
g0
(g4
S'2O-\x01@Ke@'
p1447
tp1448
Rp1449
g0
(g4
S'2O-\x01@Ke@'
p1450
tp1451
Rp1452
g0
(g4
S'2O-\x01@Ke@'
p1453
tp1454
Rp1455
g0
(g4
S'2O-\x01@Ke@'
p1456
tp1457
Rp1458
g0
(g4
S'2O-\x01@Ke@'
p1459
tp1460
Rp1461
g0
(g4
S'2O-\x01@Ke@'
p1462
tp1463
Rp1464
g0
(g4
S'2O-\x01@Ke@'
p1465
tp1466
Rp1467
g0
(g4
S'2O-\x01@Ke@'
p1468
tp1469
Rp1470
g0
(g4
S'2O-\x01@Ke@'
p1471
tp1472
Rp1473
g0
(g4
S'2O-\x01@Ke@'
p1474
tp1475
Rp1476
g0
(g4
S'2O-\x01@Ke@'
p1477
tp1478
Rp1479
g0
(g4
S'2O-\x01@Ke@'
p1480
tp1481
Rp1482
g0
(g4
S'2O-\x01@Ke@'
p1483
tp1484
Rp1485
g0
(g4
S'2O-\x01@Ke@'
p1486
tp1487
Rp1488
g0
(g4
S'2O-\x01@Ke@'
p1489
tp1490
Rp1491
g0
(g4
S'2O-\x01@Ke@'
p1492
tp1493
Rp1494
g0
(g4
S'2O-\x01@Ke@'
p1495
tp1496
Rp1497
g0
(g4
S'2O-\x01@Ke@'
p1498
tp1499
Rp1500
g0
(g4
S'2O-\x01@Ke@'
p1501
tp1502
Rp1503
g0
(g4
S'2O-\x01@Ke@'
p1504
tp1505
Rp1506
g0
(g4
S'2O-\x01@Ke@'
p1507
tp1508
Rp1509
g0
(g4
S'2O-\x01@Ke@'
p1510
tp1511
Rp1512
g0
(g4
S'2O-\x01@Ke@'
p1513
tp1514
Rp1515
g0
(g4
S'2O-\x01@Ke@'
p1516
tp1517
Rp1518
g0
(g4
S'2O-\x01@Ke@'
p1519
tp1520
Rp1521
g0
(g4
S'2O-\x01@Ke@'
p1522
tp1523
Rp1524
g0
(g4
S'2O-\x01@Ke@'
p1525
tp1526
Rp1527
g0
(g4
S'2O-\x01@Ke@'
p1528
tp1529
Rp1530
g0
(g4
S'2O-\x01@Ke@'
p1531
tp1532
Rp1533
g0
(g4
S'2O-\x01@Ke@'
p1534
tp1535
Rp1536
g0
(g4
S'2O-\x01@Ke@'
p1537
tp1538
Rp1539
g0
(g4
S'2O-\x01@Ke@'
p1540
tp1541
Rp1542
g0
(g4
S'2O-\x01@Ke@'
p1543
tp1544
Rp1545
g0
(g4
S'2O-\x01@Ke@'
p1546
tp1547
Rp1548
g0
(g4
S'2O-\x01@Ke@'
p1549
tp1550
Rp1551
g0
(g4
S'2O-\x01@Ke@'
p1552
tp1553
Rp1554
g0
(g4
S'2O-\x01@Ke@'
p1555
tp1556
Rp1557
g0
(g4
S'2O-\x01@Ke@'
p1558
tp1559
Rp1560
g0
(g4
S'2O-\x01@Ke@'
p1561
tp1562
Rp1563
g0
(g4
S'2O-\x01@Ke@'
p1564
tp1565
Rp1566
g0
(g4
S'2O-\x01@Ke@'
p1567
tp1568
Rp1569
g0
(g4
S'2O-\x01@Ke@'
p1570
tp1571
Rp1572
g0
(g4
S'2O-\x01@Ke@'
p1573
tp1574
Rp1575
g0
(g4
S'2O-\x01@Ke@'
p1576
tp1577
Rp1578
g0
(g4
S'2O-\x01@Ke@'
p1579
tp1580
Rp1581
g0
(g4
S'2O-\x01@Ke@'
p1582
tp1583
Rp1584
g0
(g4
S'2O-\x01@Ke@'
p1585
tp1586
Rp1587
g0
(g4
S'2O-\x01@Ke@'
p1588
tp1589
Rp1590
g0
(g4
S'2O-\x01@Ke@'
p1591
tp1592
Rp1593
g0
(g4
S'2O-\x01@Ke@'
p1594
tp1595
Rp1596
g0
(g4
S'2O-\x01@Ke@'
p1597
tp1598
Rp1599
g0
(g4
S'2O-\x01@Ke@'
p1600
tp1601
Rp1602
g0
(g4
S'2O-\x01@Ke@'
p1603
tp1604
Rp1605
g0
(g4
S'2O-\x01@Ke@'
p1606
tp1607
Rp1608
g0
(g4
S'2O-\x01@Ke@'
p1609
tp1610
Rp1611
g0
(g4
S'2O-\x01@Ke@'
p1612
tp1613
Rp1614
g0
(g4
S'2O-\x01@Ke@'
p1615
tp1616
Rp1617
g0
(g4
S'2O-\x01@Ke@'
p1618
tp1619
Rp1620
g0
(g4
S'2O-\x01@Ke@'
p1621
tp1622
Rp1623
g0
(g4
S'2O-\x01@Ke@'
p1624
tp1625
Rp1626
g0
(g4
S'2O-\x01@Ke@'
p1627
tp1628
Rp1629
g0
(g4
S'2O-\x01@Ke@'
p1630
tp1631
Rp1632
g0
(g4
S'2O-\x01@Ke@'
p1633
tp1634
Rp1635
g0
(g4
S'2O-\x01@Ke@'
p1636
tp1637
Rp1638
g0
(g4
S'2O-\x01@Ke@'
p1639
tp1640
Rp1641
g0
(g4
S'2O-\x01@Ke@'
p1642
tp1643
Rp1644
g0
(g4
S'2O-\x01@Ke@'
p1645
tp1646
Rp1647
g0
(g4
S'2O-\x01@Ke@'
p1648
tp1649
Rp1650
g0
(g4
S'2O-\x01@Ke@'
p1651
tp1652
Rp1653
g0
(g4
S'2O-\x01@Ke@'
p1654
tp1655
Rp1656
g0
(g4
S'2O-\x01@Ke@'
p1657
tp1658
Rp1659
g0
(g4
S'2O-\x01@Ke@'
p1660
tp1661
Rp1662
g0
(g4
S'2O-\x01@Ke@'
p1663
tp1664
Rp1665
g0
(g4
S'2O-\x01@Ke@'
p1666
tp1667
Rp1668
g0
(g4
S'2O-\x01@Ke@'
p1669
tp1670
Rp1671
g0
(g4
S'2O-\x01@Ke@'
p1672
tp1673
Rp1674
g0
(g4
S'2O-\x01@Ke@'
p1675
tp1676
Rp1677
g0
(g4
S'2O-\x01@Ke@'
p1678
tp1679
Rp1680
g0
(g4
S'2O-\x01@Ke@'
p1681
tp1682
Rp1683
g0
(g4
S'2O-\x01@Ke@'
p1684
tp1685
Rp1686
g0
(g4
S'2O-\x01@Ke@'
p1687
tp1688
Rp1689
g0
(g4
S'2O-\x01@Ke@'
p1690
tp1691
Rp1692
g0
(g4
S'2O-\x01@Ke@'
p1693
tp1694
Rp1695
g0
(g4
S'2O-\x01@Ke@'
p1696
tp1697
Rp1698
g0
(g4
S'2O-\x01@Ke@'
p1699
tp1700
Rp1701
g0
(g4
S'2O-\x01@Ke@'
p1702
tp1703
Rp1704
g0
(g4
S'2O-\x01@Ke@'
p1705
tp1706
Rp1707
g0
(g4
S'2O-\x01@Ke@'
p1708
tp1709
Rp1710
g0
(g4
S'2O-\x01@Ke@'
p1711
tp1712
Rp1713
g0
(g4
S'2O-\x01@Ke@'
p1714
tp1715
Rp1716
g0
(g4
S'2O-\x01@Ke@'
p1717
tp1718
Rp1719
g0
(g4
S'2O-\x01@Ke@'
p1720
tp1721
Rp1722
g0
(g4
S'2O-\x01@Ke@'
p1723
tp1724
Rp1725
g0
(g4
S'2O-\x01@Ke@'
p1726
tp1727
Rp1728
g0
(g4
S'2O-\x01@Ke@'
p1729
tp1730
Rp1731
g0
(g4
S'2O-\x01@Ke@'
p1732
tp1733
Rp1734
g0
(g4
S'2O-\x01@Ke@'
p1735
tp1736
Rp1737
g0
(g4
S'2O-\x01@Ke@'
p1738
tp1739
Rp1740
g0
(g4
S'2O-\x01@Ke@'
p1741
tp1742
Rp1743
g0
(g4
S'2O-\x01@Ke@'
p1744
tp1745
Rp1746
g0
(g4
S'2O-\x01@Ke@'
p1747
tp1748
Rp1749
g0
(g4
S'2O-\x01@Ke@'
p1750
tp1751
Rp1752
g0
(g4
S'2O-\x01@Ke@'
p1753
tp1754
Rp1755
g0
(g4
S'2O-\x01@Ke@'
p1756
tp1757
Rp1758
g0
(g4
S'2O-\x01@Ke@'
p1759
tp1760
Rp1761
g0
(g4
S'2O-\x01@Ke@'
p1762
tp1763
Rp1764
g0
(g4
S'2O-\x01@Ke@'
p1765
tp1766
Rp1767
g0
(g4
S'2O-\x01@Ke@'
p1768
tp1769
Rp1770
g0
(g4
S'2O-\x01@Ke@'
p1771
tp1772
Rp1773
g0
(g4
S'2O-\x01@Ke@'
p1774
tp1775
Rp1776
g0
(g4
S'2O-\x01@Ke@'
p1777
tp1778
Rp1779
g0
(g4
S'2O-\x01@Ke@'
p1780
tp1781
Rp1782
g0
(g4
S'2O-\x01@Ke@'
p1783
tp1784
Rp1785
g0
(g4
S'2O-\x01@Ke@'
p1786
tp1787
Rp1788
g0
(g4
S'2O-\x01@Ke@'
p1789
tp1790
Rp1791
g0
(g4
S'2O-\x01@Ke@'
p1792
tp1793
Rp1794
g0
(g4
S'2O-\x01@Ke@'
p1795
tp1796
Rp1797
g0
(g4
S'2O-\x01@Ke@'
p1798
tp1799
Rp1800
g0
(g4
S'2O-\x01@Ke@'
p1801
tp1802
Rp1803
g0
(g4
S'2O-\x01@Ke@'
p1804
tp1805
Rp1806
g0
(g4
S'2O-\x01@Ke@'
p1807
tp1808
Rp1809
g0
(g4
S'2O-\x01@Ke@'
p1810
tp1811
Rp1812
g0
(g4
S'2O-\x01@Ke@'
p1813
tp1814
Rp1815
g0
(g4
S'2O-\x01@Ke@'
p1816
tp1817
Rp1818
g0
(g4
S'2O-\x01@Ke@'
p1819
tp1820
Rp1821
g0
(g4
S'2O-\x01@Ke@'
p1822
tp1823
Rp1824
g0
(g4
S'2O-\x01@Ke@'
p1825
tp1826
Rp1827
g0
(g4
S'2O-\x01@Ke@'
p1828
tp1829
Rp1830
g0
(g4
S'2O-\x01@Ke@'
p1831
tp1832
Rp1833
g0
(g4
S'2O-\x01@Ke@'
p1834
tp1835
Rp1836
g0
(g4
S'2O-\x01@Ke@'
p1837
tp1838
Rp1839
g0
(g4
S'2O-\x01@Ke@'
p1840
tp1841
Rp1842
g0
(g4
S'2O-\x01@Ke@'
p1843
tp1844
Rp1845
g0
(g4
S'2O-\x01@Ke@'
p1846
tp1847
Rp1848
g0
(g4
S'2O-\x01@Ke@'
p1849
tp1850
Rp1851
g0
(g4
S'2O-\x01@Ke@'
p1852
tp1853
Rp1854
g0
(g4
S'2O-\x01@Ke@'
p1855
tp1856
Rp1857
g0
(g4
S'2O-\x01@Ke@'
p1858
tp1859
Rp1860
g0
(g4
S'2O-\x01@Ke@'
p1861
tp1862
Rp1863
g0
(g4
S'2O-\x01@Ke@'
p1864
tp1865
Rp1866
g0
(g4
S'2O-\x01@Ke@'
p1867
tp1868
Rp1869
g0
(g4
S'2O-\x01@Ke@'
p1870
tp1871
Rp1872
g0
(g4
S'2O-\x01@Ke@'
p1873
tp1874
Rp1875
g0
(g4
S'2O-\x01@Ke@'
p1876
tp1877
Rp1878
g0
(g4
S'2O-\x01@Ke@'
p1879
tp1880
Rp1881
g0
(g4
S'2O-\x01@Ke@'
p1882
tp1883
Rp1884
g0
(g4
S'2O-\x01@Ke@'
p1885
tp1886
Rp1887
g0
(g4
S'2O-\x01@Ke@'
p1888
tp1889
Rp1890
g0
(g4
S'2O-\x01@Ke@'
p1891
tp1892
Rp1893
g0
(g4
S'2O-\x01@Ke@'
p1894
tp1895
Rp1896
g0
(g4
S'2O-\x01@Ke@'
p1897
tp1898
Rp1899
g0
(g4
S'2O-\x01@Ke@'
p1900
tp1901
Rp1902
g0
(g4
S'2O-\x01@Ke@'
p1903
tp1904
Rp1905
g0
(g4
S'2O-\x01@Ke@'
p1906
tp1907
Rp1908
g0
(g4
S'2O-\x01@Ke@'
p1909
tp1910
Rp1911
g0
(g4
S'2O-\x01@Ke@'
p1912
tp1913
Rp1914
g0
(g4
S'2O-\x01@Ke@'
p1915
tp1916
Rp1917
g0
(g4
S'2O-\x01@Ke@'
p1918
tp1919
Rp1920
g0
(g4
S'2O-\x01@Ke@'
p1921
tp1922
Rp1923
g0
(g4
S'2O-\x01@Ke@'
p1924
tp1925
Rp1926
g0
(g4
S'2O-\x01@Ke@'
p1927
tp1928
Rp1929
g0
(g4
S'2O-\x01@Ke@'
p1930
tp1931
Rp1932
g0
(g4
S'2O-\x01@Ke@'
p1933
tp1934
Rp1935
g0
(g4
S'2O-\x01@Ke@'
p1936
tp1937
Rp1938
g0
(g4
S'2O-\x01@Ke@'
p1939
tp1940
Rp1941
g0
(g4
S'2O-\x01@Ke@'
p1942
tp1943
Rp1944
g0
(g4
S'2O-\x01@Ke@'
p1945
tp1946
Rp1947
g0
(g4
S'2O-\x01@Ke@'
p1948
tp1949
Rp1950
g0
(g4
S'2O-\x01@Ke@'
p1951
tp1952
Rp1953
g0
(g4
S'2O-\x01@Ke@'
p1954
tp1955
Rp1956
g0
(g4
S'2O-\x01@Ke@'
p1957
tp1958
Rp1959
g0
(g4
S'2O-\x01@Ke@'
p1960
tp1961
Rp1962
g0
(g4
S'2O-\x01@Ke@'
p1963
tp1964
Rp1965
g0
(g4
S'2O-\x01@Ke@'
p1966
tp1967
Rp1968
g0
(g4
S'2O-\x01@Ke@'
p1969
tp1970
Rp1971
g0
(g4
S'2O-\x01@Ke@'
p1972
tp1973
Rp1974
g0
(g4
S'2O-\x01@Ke@'
p1975
tp1976
Rp1977
g0
(g4
S'2O-\x01@Ke@'
p1978
tp1979
Rp1980
g0
(g4
S'2O-\x01@Ke@'
p1981
tp1982
Rp1983
g0
(g4
S'2O-\x01@Ke@'
p1984
tp1985
Rp1986
g0
(g4
S'2O-\x01@Ke@'
p1987
tp1988
Rp1989
g0
(g4
S'2O-\x01@Ke@'
p1990
tp1991
Rp1992
g0
(g4
S'2O-\x01@Ke@'
p1993
tp1994
Rp1995
g0
(g4
S'2O-\x01@Ke@'
p1996
tp1997
Rp1998
g0
(g4
S'2O-\x01@Ke@'
p1999
tp2000
Rp2001
g0
(g4
S'2O-\x01@Ke@'
p2002
tp2003
Rp2004
g0
(g4
S'2O-\x01@Ke@'
p2005
tp2006
Rp2007
g0
(g4
S'2O-\x01@Ke@'
p2008
tp2009
Rp2010
g0
(g4
S'2O-\x01@Ke@'
p2011
tp2012
Rp2013
g0
(g4
S'2O-\x01@Ke@'
p2014
tp2015
Rp2016
g0
(g4
S'2O-\x01@Ke@'
p2017
tp2018
Rp2019
g0
(g4
S'2O-\x01@Ke@'
p2020
tp2021
Rp2022
g0
(g4
S'2O-\x01@Ke@'
p2023
tp2024
Rp2025
g0
(g4
S'2O-\x01@Ke@'
p2026
tp2027
Rp2028
g0
(g4
S'2O-\x01@Ke@'
p2029
tp2030
Rp2031
g0
(g4
S'2O-\x01@Ke@'
p2032
tp2033
Rp2034
g0
(g4
S'2O-\x01@Ke@'
p2035
tp2036
Rp2037
g0
(g4
S'2O-\x01@Ke@'
p2038
tp2039
Rp2040
g0
(g4
S'2O-\x01@Ke@'
p2041
tp2042
Rp2043
g0
(g4
S'2O-\x01@Ke@'
p2044
tp2045
Rp2046
g0
(g4
S'2O-\x01@Ke@'
p2047
tp2048
Rp2049
g0
(g4
S'2O-\x01@Ke@'
p2050
tp2051
Rp2052
g0
(g4
S'2O-\x01@Ke@'
p2053
tp2054
Rp2055
g0
(g4
S'2O-\x01@Ke@'
p2056
tp2057
Rp2058
g0
(g4
S'2O-\x01@Ke@'
p2059
tp2060
Rp2061
g0
(g4
S'2O-\x01@Ke@'
p2062
tp2063
Rp2064
g0
(g4
S'2O-\x01@Ke@'
p2065
tp2066
Rp2067
g0
(g4
S'2O-\x01@Ke@'
p2068
tp2069
Rp2070
g0
(g4
S'2O-\x01@Ke@'
p2071
tp2072
Rp2073
g0
(g4
S'2O-\x01@Ke@'
p2074
tp2075
Rp2076
g0
(g4
S'2O-\x01@Ke@'
p2077
tp2078
Rp2079
g0
(g4
S'2O-\x01@Ke@'
p2080
tp2081
Rp2082
g0
(g4
S'2O-\x01@Ke@'
p2083
tp2084
Rp2085
g0
(g4
S'2O-\x01@Ke@'
p2086
tp2087
Rp2088
g0
(g4
S'2O-\x01@Ke@'
p2089
tp2090
Rp2091
g0
(g4
S'2O-\x01@Ke@'
p2092
tp2093
Rp2094
g0
(g4
S'2O-\x01@Ke@'
p2095
tp2096
Rp2097
g0
(g4
S'2O-\x01@Ke@'
p2098
tp2099
Rp2100
g0
(g4
S'2O-\x01@Ke@'
p2101
tp2102
Rp2103
g0
(g4
S'2O-\x01@Ke@'
p2104
tp2105
Rp2106
g0
(g4
S'2O-\x01@Ke@'
p2107
tp2108
Rp2109
g0
(g4
S'2O-\x01@Ke@'
p2110
tp2111
Rp2112
g0
(g4
S'2O-\x01@Ke@'
p2113
tp2114
Rp2115
g0
(g4
S'2O-\x01@Ke@'
p2116
tp2117
Rp2118
g0
(g4
S'2O-\x01@Ke@'
p2119
tp2120
Rp2121
g0
(g4
S'2O-\x01@Ke@'
p2122
tp2123
Rp2124
g0
(g4
S'2O-\x01@Ke@'
p2125
tp2126
Rp2127
g0
(g4
S'2O-\x01@Ke@'
p2128
tp2129
Rp2130
g0
(g4
S'2O-\x01@Ke@'
p2131
tp2132
Rp2133
g0
(g4
S'2O-\x01@Ke@'
p2134
tp2135
Rp2136
g0
(g4
S'2O-\x01@Ke@'
p2137
tp2138
Rp2139
g0
(g4
S'2O-\x01@Ke@'
p2140
tp2141
Rp2142
g0
(g4
S'2O-\x01@Ke@'
p2143
tp2144
Rp2145
g0
(g4
S'2O-\x01@Ke@'
p2146
tp2147
Rp2148
g0
(g4
S'2O-\x01@Ke@'
p2149
tp2150
Rp2151
g0
(g4
S'2O-\x01@Ke@'
p2152
tp2153
Rp2154
g0
(g4
S'2O-\x01@Ke@'
p2155
tp2156
Rp2157
g0
(g4
S'2O-\x01@Ke@'
p2158
tp2159
Rp2160
g0
(g4
S'2O-\x01@Ke@'
p2161
tp2162
Rp2163
g0
(g4
S'2O-\x01@Ke@'
p2164
tp2165
Rp2166
g0
(g4
S'2O-\x01@Ke@'
p2167
tp2168
Rp2169
g0
(g4
S'2O-\x01@Ke@'
p2170
tp2171
Rp2172
g0
(g4
S'2O-\x01@Ke@'
p2173
tp2174
Rp2175
g0
(g4
S'2O-\x01@Ke@'
p2176
tp2177
Rp2178
g0
(g4
S'2O-\x01@Ke@'
p2179
tp2180
Rp2181
g0
(g4
S'2O-\x01@Ke@'
p2182
tp2183
Rp2184
g0
(g4
S'2O-\x01@Ke@'
p2185
tp2186
Rp2187
g0
(g4
S'2O-\x01@Ke@'
p2188
tp2189
Rp2190
g0
(g4
S'2O-\x01@Ke@'
p2191
tp2192
Rp2193
g0
(g4
S'2O-\x01@Ke@'
p2194
tp2195
Rp2196
g0
(g4
S'2O-\x01@Ke@'
p2197
tp2198
Rp2199
g0
(g4
S'2O-\x01@Ke@'
p2200
tp2201
Rp2202
g0
(g4
S'2O-\x01@Ke@'
p2203
tp2204
Rp2205
g0
(g4
S'2O-\x01@Ke@'
p2206
tp2207
Rp2208
g0
(g4
S'2O-\x01@Ke@'
p2209
tp2210
Rp2211
g0
(g4
S'2O-\x01@Ke@'
p2212
tp2213
Rp2214
g0
(g4
S'2O-\x01@Ke@'
p2215
tp2216
Rp2217
g0
(g4
S'2O-\x01@Ke@'
p2218
tp2219
Rp2220
g0
(g4
S'2O-\x01@Ke@'
p2221
tp2222
Rp2223
g0
(g4
S'2O-\x01@Ke@'
p2224
tp2225
Rp2226
g0
(g4
S'2O-\x01@Ke@'
p2227
tp2228
Rp2229
g0
(g4
S'2O-\x01@Ke@'
p2230
tp2231
Rp2232
g0
(g4
S'2O-\x01@Ke@'
p2233
tp2234
Rp2235
g0
(g4
S'2O-\x01@Ke@'
p2236
tp2237
Rp2238
g0
(g4
S'2O-\x01@Ke@'
p2239
tp2240
Rp2241
g0
(g4
S'2O-\x01@Ke@'
p2242
tp2243
Rp2244
g0
(g4
S'2O-\x01@Ke@'
p2245
tp2246
Rp2247
g0
(g4
S'2O-\x01@Ke@'
p2248
tp2249
Rp2250
g0
(g4
S'2O-\x01@Ke@'
p2251
tp2252
Rp2253
g0
(g4
S'2O-\x01@Ke@'
p2254
tp2255
Rp2256
g0
(g4
S'2O-\x01@Ke@'
p2257
tp2258
Rp2259
g0
(g4
S'2O-\x01@Ke@'
p2260
tp2261
Rp2262
g0
(g4
S'2O-\x01@Ke@'
p2263
tp2264
Rp2265
g0
(g4
S'2O-\x01@Ke@'
p2266
tp2267
Rp2268
g0
(g4
S'2O-\x01@Ke@'
p2269
tp2270
Rp2271
g0
(g4
S'2O-\x01@Ke@'
p2272
tp2273
Rp2274
g0
(g4
S'2O-\x01@Ke@'
p2275
tp2276
Rp2277
g0
(g4
S'2O-\x01@Ke@'
p2278
tp2279
Rp2280
g0
(g4
S'2O-\x01@Ke@'
p2281
tp2282
Rp2283
g0
(g4
S'2O-\x01@Ke@'
p2284
tp2285
Rp2286
g0
(g4
S'2O-\x01@Ke@'
p2287
tp2288
Rp2289
g0
(g4
S'2O-\x01@Ke@'
p2290
tp2291
Rp2292
g0
(g4
S'2O-\x01@Ke@'
p2293
tp2294
Rp2295
g0
(g4
S'2O-\x01@Ke@'
p2296
tp2297
Rp2298
g0
(g4
S'2O-\x01@Ke@'
p2299
tp2300
Rp2301
g0
(g4
S'2O-\x01@Ke@'
p2302
tp2303
Rp2304
g0
(g4
S'2O-\x01@Ke@'
p2305
tp2306
Rp2307
g0
(g4
S'2O-\x01@Ke@'
p2308
tp2309
Rp2310
g0
(g4
S'2O-\x01@Ke@'
p2311
tp2312
Rp2313
g0
(g4
S'2O-\x01@Ke@'
p2314
tp2315
Rp2316
g0
(g4
S'2O-\x01@Ke@'
p2317
tp2318
Rp2319
g0
(g4
S'2O-\x01@Ke@'
p2320
tp2321
Rp2322
g0
(g4
S'2O-\x01@Ke@'
p2323
tp2324
Rp2325
g0
(g4
S'2O-\x01@Ke@'
p2326
tp2327
Rp2328
g0
(g4
S'2O-\x01@Ke@'
p2329
tp2330
Rp2331
g0
(g4
S'2O-\x01@Ke@'
p2332
tp2333
Rp2334
g0
(g4
S'2O-\x01@Ke@'
p2335
tp2336
Rp2337
g0
(g4
S'2O-\x01@Ke@'
p2338
tp2339
Rp2340
g0
(g4
S'2O-\x01@Ke@'
p2341
tp2342
Rp2343
g0
(g4
S'2O-\x01@Ke@'
p2344
tp2345
Rp2346
g0
(g4
S'2O-\x01@Ke@'
p2347
tp2348
Rp2349
g0
(g4
S'2O-\x01@Ke@'
p2350
tp2351
Rp2352
g0
(g4
S'2O-\x01@Ke@'
p2353
tp2354
Rp2355
g0
(g4
S'2O-\x01@Ke@'
p2356
tp2357
Rp2358
g0
(g4
S'2O-\x01@Ke@'
p2359
tp2360
Rp2361
g0
(g4
S'2O-\x01@Ke@'
p2362
tp2363
Rp2364
g0
(g4
S'2O-\x01@Ke@'
p2365
tp2366
Rp2367
g0
(g4
S'2O-\x01@Ke@'
p2368
tp2369
Rp2370
g0
(g4
S'2O-\x01@Ke@'
p2371
tp2372
Rp2373
g0
(g4
S'2O-\x01@Ke@'
p2374
tp2375
Rp2376
g0
(g4
S'2O-\x01@Ke@'
p2377
tp2378
Rp2379
g0
(g4
S'2O-\x01@Ke@'
p2380
tp2381
Rp2382
g0
(g4
S'2O-\x01@Ke@'
p2383
tp2384
Rp2385
g0
(g4
S'2O-\x01@Ke@'
p2386
tp2387
Rp2388
g0
(g4
S'2O-\x01@Ke@'
p2389
tp2390
Rp2391
g0
(g4
S'2O-\x01@Ke@'
p2392
tp2393
Rp2394
g0
(g4
S'2O-\x01@Ke@'
p2395
tp2396
Rp2397
g0
(g4
S'2O-\x01@Ke@'
p2398
tp2399
Rp2400
g0
(g4
S'2O-\x01@Ke@'
p2401
tp2402
Rp2403
g0
(g4
S'2O-\x01@Ke@'
p2404
tp2405
Rp2406
g0
(g4
S'2O-\x01@Ke@'
p2407
tp2408
Rp2409
g0
(g4
S'2O-\x01@Ke@'
p2410
tp2411
Rp2412
g0
(g4
S'2O-\x01@Ke@'
p2413
tp2414
Rp2415
g0
(g4
S'2O-\x01@Ke@'
p2416
tp2417
Rp2418
g0
(g4
S'2O-\x01@Ke@'
p2419
tp2420
Rp2421
g0
(g4
S'2O-\x01@Ke@'
p2422
tp2423
Rp2424
g0
(g4
S'2O-\x01@Ke@'
p2425
tp2426
Rp2427
g0
(g4
S'2O-\x01@Ke@'
p2428
tp2429
Rp2430
g0
(g4
S'2O-\x01@Ke@'
p2431
tp2432
Rp2433
g0
(g4
S'2O-\x01@Ke@'
p2434
tp2435
Rp2436
g0
(g4
S'2O-\x01@Ke@'
p2437
tp2438
Rp2439
g0
(g4
S'2O-\x01@Ke@'
p2440
tp2441
Rp2442
g0
(g4
S'2O-\x01@Ke@'
p2443
tp2444
Rp2445
g0
(g4
S'2O-\x01@Ke@'
p2446
tp2447
Rp2448
g0
(g4
S'2O-\x01@Ke@'
p2449
tp2450
Rp2451
g0
(g4
S'2O-\x01@Ke@'
p2452
tp2453
Rp2454
g0
(g4
S'2O-\x01@Ke@'
p2455
tp2456
Rp2457
g0
(g4
S'2O-\x01@Ke@'
p2458
tp2459
Rp2460
g0
(g4
S'2O-\x01@Ke@'
p2461
tp2462
Rp2463
g0
(g4
S'2O-\x01@Ke@'
p2464
tp2465
Rp2466
g0
(g4
S'2O-\x01@Ke@'
p2467
tp2468
Rp2469
g0
(g4
S'2O-\x01@Ke@'
p2470
tp2471
Rp2472
g0
(g4
S'2O-\x01@Ke@'
p2473
tp2474
Rp2475
g0
(g4
S'2O-\x01@Ke@'
p2476
tp2477
Rp2478
g0
(g4
S'2O-\x01@Ke@'
p2479
tp2480
Rp2481
g0
(g4
S'2O-\x01@Ke@'
p2482
tp2483
Rp2484
g0
(g4
S'2O-\x01@Ke@'
p2485
tp2486
Rp2487
g0
(g4
S'2O-\x01@Ke@'
p2488
tp2489
Rp2490
g0
(g4
S'2O-\x01@Ke@'
p2491
tp2492
Rp2493
g0
(g4
S'2O-\x01@Ke@'
p2494
tp2495
Rp2496
g0
(g4
S'2O-\x01@Ke@'
p2497
tp2498
Rp2499
g0
(g4
S'2O-\x01@Ke@'
p2500
tp2501
Rp2502
g0
(g4
S'2O-\x01@Ke@'
p2503
tp2504
Rp2505
g0
(g4
S'2O-\x01@Ke@'
p2506
tp2507
Rp2508
g0
(g4
S'2O-\x01@Ke@'
p2509
tp2510
Rp2511
g0
(g4
S'2O-\x01@Ke@'
p2512
tp2513
Rp2514
g0
(g4
S'2O-\x01@Ke@'
p2515
tp2516
Rp2517
g0
(g4
S'2O-\x01@Ke@'
p2518
tp2519
Rp2520
g0
(g4
S'2O-\x01@Ke@'
p2521
tp2522
Rp2523
g0
(g4
S'2O-\x01@Ke@'
p2524
tp2525
Rp2526
g0
(g4
S'2O-\x01@Ke@'
p2527
tp2528
Rp2529
g0
(g4
S'2O-\x01@Ke@'
p2530
tp2531
Rp2532
g0
(g4
S'2O-\x01@Ke@'
p2533
tp2534
Rp2535
g0
(g4
S'2O-\x01@Ke@'
p2536
tp2537
Rp2538
g0
(g4
S'2O-\x01@Ke@'
p2539
tp2540
Rp2541
g0
(g4
S'2O-\x01@Ke@'
p2542
tp2543
Rp2544
g0
(g4
S'2O-\x01@Ke@'
p2545
tp2546
Rp2547
g0
(g4
S'2O-\x01@Ke@'
p2548
tp2549
Rp2550
g0
(g4
S'2O-\x01@Ke@'
p2551
tp2552
Rp2553
g0
(g4
S'2O-\x01@Ke@'
p2554
tp2555
Rp2556
g0
(g4
S'2O-\x01@Ke@'
p2557
tp2558
Rp2559
g0
(g4
S'2O-\x01@Ke@'
p2560
tp2561
Rp2562
g0
(g4
S'2O-\x01@Ke@'
p2563
tp2564
Rp2565
g0
(g4
S'2O-\x01@Ke@'
p2566
tp2567
Rp2568
g0
(g4
S'2O-\x01@Ke@'
p2569
tp2570
Rp2571
g0
(g4
S'2O-\x01@Ke@'
p2572
tp2573
Rp2574
g0
(g4
S'2O-\x01@Ke@'
p2575
tp2576
Rp2577
g0
(g4
S'2O-\x01@Ke@'
p2578
tp2579
Rp2580
g0
(g4
S'2O-\x01@Ke@'
p2581
tp2582
Rp2583
g0
(g4
S'2O-\x01@Ke@'
p2584
tp2585
Rp2586
g0
(g4
S'2O-\x01@Ke@'
p2587
tp2588
Rp2589
g0
(g4
S'2O-\x01@Ke@'
p2590
tp2591
Rp2592
g0
(g4
S'2O-\x01@Ke@'
p2593
tp2594
Rp2595
g0
(g4
S'2O-\x01@Ke@'
p2596
tp2597
Rp2598
g0
(g4
S'2O-\x01@Ke@'
p2599
tp2600
Rp2601
g0
(g4
S'2O-\x01@Ke@'
p2602
tp2603
Rp2604
g0
(g4
S'2O-\x01@Ke@'
p2605
tp2606
Rp2607
g0
(g4
S'2O-\x01@Ke@'
p2608
tp2609
Rp2610
g0
(g4
S'2O-\x01@Ke@'
p2611
tp2612
Rp2613
g0
(g4
S'2O-\x01@Ke@'
p2614
tp2615
Rp2616
g0
(g4
S'2O-\x01@Ke@'
p2617
tp2618
Rp2619
g0
(g4
S'2O-\x01@Ke@'
p2620
tp2621
Rp2622
g0
(g4
S'2O-\x01@Ke@'
p2623
tp2624
Rp2625
g0
(g4
S'2O-\x01@Ke@'
p2626
tp2627
Rp2628
g0
(g4
S'2O-\x01@Ke@'
p2629
tp2630
Rp2631
g0
(g4
S'2O-\x01@Ke@'
p2632
tp2633
Rp2634
g0
(g4
S'2O-\x01@Ke@'
p2635
tp2636
Rp2637
g0
(g4
S'2O-\x01@Ke@'
p2638
tp2639
Rp2640
g0
(g4
S'2O-\x01@Ke@'
p2641
tp2642
Rp2643
g0
(g4
S'2O-\x01@Ke@'
p2644
tp2645
Rp2646
g0
(g4
S'2O-\x01@Ke@'
p2647
tp2648
Rp2649
g0
(g4
S'2O-\x01@Ke@'
p2650
tp2651
Rp2652
g0
(g4
S'2O-\x01@Ke@'
p2653
tp2654
Rp2655
g0
(g4
S'2O-\x01@Ke@'
p2656
tp2657
Rp2658
g0
(g4
S'2O-\x01@Ke@'
p2659
tp2660
Rp2661
g0
(g4
S'2O-\x01@Ke@'
p2662
tp2663
Rp2664
g0
(g4
S'2O-\x01@Ke@'
p2665
tp2666
Rp2667
g0
(g4
S'2O-\x01@Ke@'
p2668
tp2669
Rp2670
g0
(g4
S'2O-\x01@Ke@'
p2671
tp2672
Rp2673
g0
(g4
S'2O-\x01@Ke@'
p2674
tp2675
Rp2676
g0
(g4
S'2O-\x01@Ke@'
p2677
tp2678
Rp2679
g0
(g4
S'2O-\x01@Ke@'
p2680
tp2681
Rp2682
g0
(g4
S'2O-\x01@Ke@'
p2683
tp2684
Rp2685
g0
(g4
S'2O-\x01@Ke@'
p2686
tp2687
Rp2688
g0
(g4
S'2O-\x01@Ke@'
p2689
tp2690
Rp2691
g0
(g4
S'2O-\x01@Ke@'
p2692
tp2693
Rp2694
g0
(g4
S'2O-\x01@Ke@'
p2695
tp2696
Rp2697
g0
(g4
S'2O-\x01@Ke@'
p2698
tp2699
Rp2700
g0
(g4
S'2O-\x01@Ke@'
p2701
tp2702
Rp2703
g0
(g4
S'2O-\x01@Ke@'
p2704
tp2705
Rp2706
g0
(g4
S'2O-\x01@Ke@'
p2707
tp2708
Rp2709
g0
(g4
S'2O-\x01@Ke@'
p2710
tp2711
Rp2712
g0
(g4
S'2O-\x01@Ke@'
p2713
tp2714
Rp2715
g0
(g4
S'2O-\x01@Ke@'
p2716
tp2717
Rp2718
g0
(g4
S'2O-\x01@Ke@'
p2719
tp2720
Rp2721
g0
(g4
S'2O-\x01@Ke@'
p2722
tp2723
Rp2724
g0
(g4
S'2O-\x01@Ke@'
p2725
tp2726
Rp2727
g0
(g4
S'2O-\x01@Ke@'
p2728
tp2729
Rp2730
g0
(g4
S'2O-\x01@Ke@'
p2731
tp2732
Rp2733
g0
(g4
S'2O-\x01@Ke@'
p2734
tp2735
Rp2736
g0
(g4
S'2O-\x01@Ke@'
p2737
tp2738
Rp2739
g0
(g4
S'2O-\x01@Ke@'
p2740
tp2741
Rp2742
g0
(g4
S'2O-\x01@Ke@'
p2743
tp2744
Rp2745
g0
(g4
S'2O-\x01@Ke@'
p2746
tp2747
Rp2748
g0
(g4
S'2O-\x01@Ke@'
p2749
tp2750
Rp2751
g0
(g4
S'2O-\x01@Ke@'
p2752
tp2753
Rp2754
g0
(g4
S'2O-\x01@Ke@'
p2755
tp2756
Rp2757
g0
(g4
S'2O-\x01@Ke@'
p2758
tp2759
Rp2760
g0
(g4
S'2O-\x01@Ke@'
p2761
tp2762
Rp2763
g0
(g4
S'2O-\x01@Ke@'
p2764
tp2765
Rp2766
g0
(g4
S'2O-\x01@Ke@'
p2767
tp2768
Rp2769
g0
(g4
S'2O-\x01@Ke@'
p2770
tp2771
Rp2772
g0
(g4
S'2O-\x01@Ke@'
p2773
tp2774
Rp2775
g0
(g4
S'2O-\x01@Ke@'
p2776
tp2777
Rp2778
g0
(g4
S'2O-\x01@Ke@'
p2779
tp2780
Rp2781
g0
(g4
S'2O-\x01@Ke@'
p2782
tp2783
Rp2784
g0
(g4
S'2O-\x01@Ke@'
p2785
tp2786
Rp2787
g0
(g4
S'2O-\x01@Ke@'
p2788
tp2789
Rp2790
g0
(g4
S'2O-\x01@Ke@'
p2791
tp2792
Rp2793
g0
(g4
S'2O-\x01@Ke@'
p2794
tp2795
Rp2796
g0
(g4
S'2O-\x01@Ke@'
p2797
tp2798
Rp2799
g0
(g4
S'2O-\x01@Ke@'
p2800
tp2801
Rp2802
g0
(g4
S'2O-\x01@Ke@'
p2803
tp2804
Rp2805
g0
(g4
S'2O-\x01@Ke@'
p2806
tp2807
Rp2808
g0
(g4
S'2O-\x01@Ke@'
p2809
tp2810
Rp2811
g0
(g4
S'2O-\x01@Ke@'
p2812
tp2813
Rp2814
g0
(g4
S'2O-\x01@Ke@'
p2815
tp2816
Rp2817
g0
(g4
S'2O-\x01@Ke@'
p2818
tp2819
Rp2820
g0
(g4
S'2O-\x01@Ke@'
p2821
tp2822
Rp2823
g0
(g4
S'2O-\x01@Ke@'
p2824
tp2825
Rp2826
g0
(g4
S'2O-\x01@Ke@'
p2827
tp2828
Rp2829
g0
(g4
S'2O-\x01@Ke@'
p2830
tp2831
Rp2832
g0
(g4
S'2O-\x01@Ke@'
p2833
tp2834
Rp2835
g0
(g4
S'2O-\x01@Ke@'
p2836
tp2837
Rp2838
g0
(g4
S'2O-\x01@Ke@'
p2839
tp2840
Rp2841
g0
(g4
S'2O-\x01@Ke@'
p2842
tp2843
Rp2844
g0
(g4
S'2O-\x01@Ke@'
p2845
tp2846
Rp2847
g0
(g4
S'2O-\x01@Ke@'
p2848
tp2849
Rp2850
g0
(g4
S'2O-\x01@Ke@'
p2851
tp2852
Rp2853
g0
(g4
S'2O-\x01@Ke@'
p2854
tp2855
Rp2856
g0
(g4
S'2O-\x01@Ke@'
p2857
tp2858
Rp2859
g0
(g4
S'2O-\x01@Ke@'
p2860
tp2861
Rp2862
g0
(g4
S'2O-\x01@Ke@'
p2863
tp2864
Rp2865
g0
(g4
S'2O-\x01@Ke@'
p2866
tp2867
Rp2868
g0
(g4
S'2O-\x01@Ke@'
p2869
tp2870
Rp2871
g0
(g4
S'2O-\x01@Ke@'
p2872
tp2873
Rp2874
g0
(g4
S'2O-\x01@Ke@'
p2875
tp2876
Rp2877
g0
(g4
S'2O-\x01@Ke@'
p2878
tp2879
Rp2880
g0
(g4
S'2O-\x01@Ke@'
p2881
tp2882
Rp2883
g0
(g4
S'2O-\x01@Ke@'
p2884
tp2885
Rp2886
g0
(g4
S'2O-\x01@Ke@'
p2887
tp2888
Rp2889
g0
(g4
S'2O-\x01@Ke@'
p2890
tp2891
Rp2892
g0
(g4
S'2O-\x01@Ke@'
p2893
tp2894
Rp2895
g0
(g4
S'2O-\x01@Ke@'
p2896
tp2897
Rp2898
g0
(g4
S'2O-\x01@Ke@'
p2899
tp2900
Rp2901
g0
(g4
S'2O-\x01@Ke@'
p2902
tp2903
Rp2904
g0
(g4
S'2O-\x01@Ke@'
p2905
tp2906
Rp2907
g0
(g4
S'2O-\x01@Ke@'
p2908
tp2909
Rp2910
g0
(g4
S'2O-\x01@Ke@'
p2911
tp2912
Rp2913
g0
(g4
S'2O-\x01@Ke@'
p2914
tp2915
Rp2916
g0
(g4
S'2O-\x01@Ke@'
p2917
tp2918
Rp2919
g0
(g4
S'2O-\x01@Ke@'
p2920
tp2921
Rp2922
g0
(g4
S'2O-\x01@Ke@'
p2923
tp2924
Rp2925
g0
(g4
S'2O-\x01@Ke@'
p2926
tp2927
Rp2928
g0
(g4
S'2O-\x01@Ke@'
p2929
tp2930
Rp2931
g0
(g4
S'2O-\x01@Ke@'
p2932
tp2933
Rp2934
g0
(g4
S'2O-\x01@Ke@'
p2935
tp2936
Rp2937
g0
(g4
S'2O-\x01@Ke@'
p2938
tp2939
Rp2940
g0
(g4
S'2O-\x01@Ke@'
p2941
tp2942
Rp2943
g0
(g4
S'2O-\x01@Ke@'
p2944
tp2945
Rp2946
g0
(g4
S'2O-\x01@Ke@'
p2947
tp2948
Rp2949
g0
(g4
S'2O-\x01@Ke@'
p2950
tp2951
Rp2952
g0
(g4
S'2O-\x01@Ke@'
p2953
tp2954
Rp2955
g0
(g4
S'2O-\x01@Ke@'
p2956
tp2957
Rp2958
g0
(g4
S'2O-\x01@Ke@'
p2959
tp2960
Rp2961
g0
(g4
S'2O-\x01@Ke@'
p2962
tp2963
Rp2964
g0
(g4
S'2O-\x01@Ke@'
p2965
tp2966
Rp2967
g0
(g4
S'2O-\x01@Ke@'
p2968
tp2969
Rp2970
g0
(g4
S'2O-\x01@Ke@'
p2971
tp2972
Rp2973
g0
(g4
S'2O-\x01@Ke@'
p2974
tp2975
Rp2976
g0
(g4
S'2O-\x01@Ke@'
p2977
tp2978
Rp2979
g0
(g4
S'2O-\x01@Ke@'
p2980
tp2981
Rp2982
g0
(g4
S'2O-\x01@Ke@'
p2983
tp2984
Rp2985
g0
(g4
S'2O-\x01@Ke@'
p2986
tp2987
Rp2988
g0
(g4
S'2O-\x01@Ke@'
p2989
tp2990
Rp2991
g0
(g4
S'2O-\x01@Ke@'
p2992
tp2993
Rp2994
g0
(g4
S'2O-\x01@Ke@'
p2995
tp2996
Rp2997
g0
(g4
S'2O-\x01@Ke@'
p2998
tp2999
Rp3000
g0
(g4
S'2O-\x01@Ke@'
p3001
tp3002
Rp3003
g0
(g4
S'2O-\x01@Ke@'
p3004
tp3005
Rp3006
tp3007
.